target datalayout = "e-m:e-p270:32:32-p271:32:32-p272:64:64-i64:64-i128:128-f80:128-n8:16:32:64-S128"
target triple = "x86_64-pc-linux-gnu"

; Function Attrs: noinline nounwind uwtable
define hidden i32 @ma_wcscpy_s(ptr noundef %0, i64 noundef %1, ptr noundef %2) #1 {
  %4 = alloca i32, align 4
  %5 = alloca ptr, align 8
  %6 = alloca i64, align 8
  %7 = alloca ptr, align 8
  %8 = alloca i64, align 8
  %9 = alloca i32, align 4
  store ptr %0, ptr %5, align 8
  store i64 %1, ptr %6, align 8
  store ptr %2, ptr %7, align 8
  call void @llvm.lifetime.start.p0(i64 8, ptr %8) #21
  %10 = load ptr, ptr %5, align 8
  %11 = icmp eq ptr %10, null
  br i1 %11, label %12, label %13

12:                                               ; preds = %3
  store i32 22, ptr %4, align 4
  store i32 1, ptr %9, align 4
  br label %58

13:                                               ; preds = %3
  %14 = load i64, ptr %6, align 8
  %15 = icmp eq i64 %14, 0
  br i1 %15, label %16, label %17

16:                                               ; preds = %13
  store i32 34, ptr %4, align 4
  store i32 1, ptr %9, align 4
  br label %58

17:                                               ; preds = %13
  %18 = load ptr, ptr %7, align 8
  %19 = icmp eq ptr %18, null
  br i1 %19, label %20, label %23

20:                                               ; preds = %17
  %21 = load ptr, ptr %5, align 8
  %22 = getelementptr inbounds i32, ptr %21, i64 0
  store i32 0, ptr %22, align 4
  store i32 22, ptr %4, align 4
  store i32 1, ptr %9, align 4
  br label %58

23:                                               ; preds = %17
  store i64 0, ptr %8, align 8
  br label %24

24:                                               ; preds = %44, %23
  %25 = load i64, ptr %8, align 8
  %26 = load i64, ptr %6, align 8
  %27 = icmp ult i64 %25, %26
  br i1 %27, label %28, label %34

28:                                               ; preds = %24
  %29 = load ptr, ptr %7, align 8
  %30 = load i64, ptr %8, align 8
  %31 = getelementptr inbounds nuw i32, ptr %29, i64 %30
  %32 = load i32, ptr %31, align 4
  %33 = icmp ne i32 %32, 0
  br label %34

34:                                               ; preds = %28, %24
  %35 = phi i1 [ false, %24 ], [ %33, %28 ]
  br i1 %35, label %36, label %47

36:                                               ; preds = %34
  %37 = load ptr, ptr %7, align 8
  %38 = load i64, ptr %8, align 8
  %39 = getelementptr inbounds nuw i32, ptr %37, i64 %38
  %40 = load i32, ptr %39, align 4
  %41 = load ptr, ptr %5, align 8
  %42 = load i64, ptr %8, align 8
  %43 = getelementptr inbounds nuw i32, ptr %41, i64 %42
  store i32 %40, ptr %43, align 4
  br label %44

44:                                               ; preds = %36
  %45 = load i64, ptr %8, align 8
  %46 = add i64 %45, 1
  store i64 %46, ptr %8, align 8
  br label %24

47:                                               ; preds = %34
  %48 = load i64, ptr %8, align 8
  %49 = load i64, ptr %6, align 8
  %50 = icmp ult i64 %48, %49
  br i1 %50, label %51, label %55

51:                                               ; preds = %47
  %52 = load ptr, ptr %5, align 8
  %53 = load i64, ptr %8, align 8
  %54 = getelementptr inbounds nuw i32, ptr %52, i64 %53
  store i32 0, ptr %54, align 4
  store i32 0, ptr %4, align 4
  store i32 1, ptr %9, align 4
  br label %58

55:                                               ; preds = %47
  %56 = load ptr, ptr %5, align 8
  %57 = getelementptr inbounds i32, ptr %56, i64 0
  store i32 0, ptr %57, align 4
  store i32 34, ptr %4, align 4
  store i32 1, ptr %9, align 4
  br label %58

58:                                               ; preds = %55, %51, %20, %16, %12
  call void @llvm.lifetime.end.p0(i64 8, ptr %8) #21
  %59 = load i32, ptr %4, align 4
  ret i32 %59
}