; Function Attrs: nofree noinline norecurse nosync nounwind memory(argmem: readwrite) uwtable
define hidden range(i32 0, 35) i32 @ma_wcscpy_s(ptr noundef writeonly captures(address_is_null) %0, i64 noundef %1, ptr noundef readonly captures(address_is_null) %2) local_unnamed_addr #2 {
  %4 = icmp eq ptr %0, null
  br i1 %4, label %15, label %5

5:                                                ; preds = %3
  %6 = icmp eq i64 %1, 0
  br i1 %6, label %15, label %7

7:                                                ; preds = %5
  %8 = icmp eq ptr %2, null
  br i1 %8, label %9, label %.preheader

9:                                                ; preds = %7
  store i32 0, ptr %0, align 4
  br label %15

.preheader:                                       ; preds = %7, %13
  %.025 = phi i64 [ %14, %13 ], [ 0, %7 ]
  %10 = getelementptr inbounds nuw i32, ptr %2, i64 %.025
  %11 = load i32, ptr %10, align 4
  %.not = icmp eq i32 %11, 0
  %12 = getelementptr inbounds nuw i32, ptr %0, i64 %.025
  br i1 %.not, label %.critedge, label %13

13:                                               ; preds = %.preheader
  store i32 %11, ptr %12, align 4
  %14 = add nuw i64 %.025, 1
  %exitcond.not = icmp eq i64 %14, %1
  br i1 %exitcond.not, label %.critedge23, label %.preheader

.critedge:                                        ; preds = %.preheader
  store i32 0, ptr %12, align 4
  br label %15

.critedge23:                                      ; preds = %13
  store i32 0, ptr %0, align 4
  br label %15

15:                                               ; preds = %5, %3, %.critedge23, %.critedge, %9
  %.018 = phi i32 [ 22, %9 ], [ 0, %.critedge ], [ 34, %.critedge23 ], [ 22, %3 ], [ 34, %5 ]
  ret i32 %.018
}